
bench_fib_recursive.elf:     file format elf32-littleriscv


Disassembly of section .text:

00000000 <_start>:
   0:	3fc00113          	li	sp,1020
   4:	00000f93          	li	t6,0
   8:	024000ef          	jal	2c <main>
   c:	0de00f93          	li	t6,222
  10:	008f9f93          	slli	t6,t6,0x8
  14:	0adf8f93          	addi	t6,t6,173

00000018 <halt_loop>:
  18:	00000013          	nop
  1c:	00000013          	nop
  20:	00000013          	nop
  24:	00000013          	nop
  28:	ff1ff06f          	j	18 <halt_loop>

0000002c <main>:
  2c:	000007b7          	lui	a5,0x0
  30:	00078793          	mv	a5,a5
  34:	00100713          	li	a4,1
  38:	00e7a023          	sw	a4,0(a5) # 0 <_start>
  3c:	00200693          	li	a3,2
  40:	00d7a223          	sw	a3,4(a5)
  44:	00300613          	li	a2,3
  48:	00c7a423          	sw	a2,8(a5)
  4c:	00400593          	li	a1,4
  50:	00b7a623          	sw	a1,12(a5)
  54:	00500513          	li	a0,5
  58:	00a7a823          	sw	a0,16(a5)
  5c:	00600813          	li	a6,6
  60:	0107aa23          	sw	a6,20(a5)
  64:	00700893          	li	a7,7
  68:	0117ac23          	sw	a7,24(a5)
  6c:	00800313          	li	t1,8
  70:	0067ae23          	sw	t1,28(a5)
  74:	0267a023          	sw	t1,32(a5)
  78:	0317a223          	sw	a7,36(a5)
  7c:	0307a423          	sw	a6,40(a5)
  80:	02a7a623          	sw	a0,44(a5)
  84:	02b7a823          	sw	a1,48(a5)
  88:	02c7aa23          	sw	a2,52(a5)
  8c:	02d7ac23          	sw	a3,56(a5)
  90:	02e7ae23          	sw	a4,60(a5)
  94:	0007a703          	lw	a4,0(a5)
  98:	0207a683          	lw	a3,32(a5)
  9c:	00d70733          	add	a4,a4,a3
  a0:	04e7a023          	sw	a4,64(a5)
  a4:	0047a703          	lw	a4,4(a5)
  a8:	0247a683          	lw	a3,36(a5)
  ac:	00d70733          	add	a4,a4,a3
  b0:	04e7a223          	sw	a4,68(a5)
  b4:	0087a703          	lw	a4,8(a5)
  b8:	0287a683          	lw	a3,40(a5)
  bc:	00d70733          	add	a4,a4,a3
  c0:	04e7a423          	sw	a4,72(a5)
  c4:	00c7a703          	lw	a4,12(a5)
  c8:	02c7a683          	lw	a3,44(a5)
  cc:	00d70733          	add	a4,a4,a3
  d0:	04e7a623          	sw	a4,76(a5)
  d4:	0107a703          	lw	a4,16(a5)
  d8:	0307a683          	lw	a3,48(a5)
  dc:	00d70733          	add	a4,a4,a3
  e0:	04e7a823          	sw	a4,80(a5)
  e4:	0147a703          	lw	a4,20(a5)
  e8:	0347a683          	lw	a3,52(a5)
  ec:	00d70733          	add	a4,a4,a3
  f0:	04e7aa23          	sw	a4,84(a5)
  f4:	0187a703          	lw	a4,24(a5)
  f8:	0387a683          	lw	a3,56(a5)
  fc:	00d70733          	add	a4,a4,a3
 100:	04e7ac23          	sw	a4,88(a5)
 104:	01c7a703          	lw	a4,28(a5)
 108:	03c7a683          	lw	a3,60(a5)
 10c:	00d70733          	add	a4,a4,a3
 110:	04e7ae23          	sw	a4,92(a5)
 114:	0407a703          	lw	a4,64(a5)
 118:	0207a683          	lw	a3,32(a5)
 11c:	00d74733          	xor	a4,a4,a3
 120:	00e7a023          	sw	a4,0(a5)
 124:	0447a703          	lw	a4,68(a5)
 128:	0247a683          	lw	a3,36(a5)
 12c:	00d74733          	xor	a4,a4,a3
 130:	00e7a223          	sw	a4,4(a5)
 134:	0487a703          	lw	a4,72(a5)
 138:	0287a683          	lw	a3,40(a5)
 13c:	00d74733          	xor	a4,a4,a3
 140:	00e7a423          	sw	a4,8(a5)
 144:	04c7a703          	lw	a4,76(a5)
 148:	02c7a683          	lw	a3,44(a5)
 14c:	00d74733          	xor	a4,a4,a3
 150:	00e7a623          	sw	a4,12(a5)
 154:	0507a703          	lw	a4,80(a5)
 158:	0307a683          	lw	a3,48(a5)
 15c:	00d74733          	xor	a4,a4,a3
 160:	00e7a823          	sw	a4,16(a5)
 164:	0547a703          	lw	a4,84(a5)
 168:	0347a683          	lw	a3,52(a5)
 16c:	00d74733          	xor	a4,a4,a3
 170:	00e7aa23          	sw	a4,20(a5)
 174:	0587a703          	lw	a4,88(a5)
 178:	0387a683          	lw	a3,56(a5)
 17c:	00d74733          	xor	a4,a4,a3
 180:	00e7ac23          	sw	a4,24(a5)
 184:	05c7a703          	lw	a4,92(a5)
 188:	03c7a683          	lw	a3,60(a5)
 18c:	00d74733          	xor	a4,a4,a3
 190:	00e7ae23          	sw	a4,28(a5)
 194:	0407a703          	lw	a4,64(a5)
 198:	0007a683          	lw	a3,0(a5)
 19c:	40d70733          	sub	a4,a4,a3
 1a0:	02e7a023          	sw	a4,32(a5)
 1a4:	0447a703          	lw	a4,68(a5)
 1a8:	0047a683          	lw	a3,4(a5)
 1ac:	40d70733          	sub	a4,a4,a3
 1b0:	02e7a223          	sw	a4,36(a5)
 1b4:	0487a703          	lw	a4,72(a5)
 1b8:	0087a683          	lw	a3,8(a5)
 1bc:	40d70733          	sub	a4,a4,a3
 1c0:	02e7a423          	sw	a4,40(a5)
 1c4:	04c7a703          	lw	a4,76(a5)
 1c8:	00c7a683          	lw	a3,12(a5)
 1cc:	40d70733          	sub	a4,a4,a3
 1d0:	02e7a623          	sw	a4,44(a5)
 1d4:	0507a703          	lw	a4,80(a5)
 1d8:	0107a683          	lw	a3,16(a5)
 1dc:	40d70733          	sub	a4,a4,a3
 1e0:	02e7a823          	sw	a4,48(a5)
 1e4:	0547a703          	lw	a4,84(a5)
 1e8:	0147a683          	lw	a3,20(a5)
 1ec:	40d70733          	sub	a4,a4,a3
 1f0:	02e7aa23          	sw	a4,52(a5)
 1f4:	0587a703          	lw	a4,88(a5)
 1f8:	0187a683          	lw	a3,24(a5)
 1fc:	40d70733          	sub	a4,a4,a3
 200:	02e7ac23          	sw	a4,56(a5)
 204:	05c7a703          	lw	a4,92(a5)
 208:	01c7a683          	lw	a3,28(a5)
 20c:	40d70733          	sub	a4,a4,a3
 210:	02e7ae23          	sw	a4,60(a5)
 214:	0407a683          	lw	a3,64(a5)
 218:	0447af03          	lw	t5,68(a5)
 21c:	0487a803          	lw	a6,72(a5)
 220:	04c7a503          	lw	a0,76(a5)
 224:	0507a303          	lw	t1,80(a5)
 228:	0547af83          	lw	t6,84(a5)
 22c:	0587ae83          	lw	t4,88(a5)
 230:	05c7a883          	lw	a7,92(a5)
 234:	0007a603          	lw	a2,0(a5)
 238:	0047ae03          	lw	t3,4(a5)
 23c:	0087a703          	lw	a4,8(a5)
 240:	01e686b3          	add	a3,a3,t5
 244:	00c7a583          	lw	a1,12(a5)
 248:	01c60633          	add	a2,a2,t3
 24c:	010686b3          	add	a3,a3,a6
 250:	0107a283          	lw	t0,16(a5)
 254:	00e60633          	add	a2,a2,a4
 258:	0147af03          	lw	t5,20(a5)
 25c:	00a686b3          	add	a3,a3,a0
 260:	0187ae03          	lw	t3,24(a5)
 264:	01c7a803          	lw	a6,28(a5)
 268:	0207a703          	lw	a4,32(a5)
 26c:	0247a503          	lw	a0,36(a5)
 270:	00b60633          	add	a2,a2,a1
 274:	0287a583          	lw	a1,40(a5)
 278:	00a70733          	add	a4,a4,a0
 27c:	02c7a503          	lw	a0,44(a5)
 280:	00b70733          	add	a4,a4,a1
 284:	0307a583          	lw	a1,48(a5)
 288:	006686b3          	add	a3,a3,t1
 28c:	0347a303          	lw	t1,52(a5)
 290:	00560633          	add	a2,a2,t0
 294:	00a70733          	add	a4,a4,a0
 298:	0387a503          	lw	a0,56(a5)
 29c:	00b70733          	add	a4,a4,a1
 2a0:	01f686b3          	add	a3,a3,t6
 2a4:	03c7a583          	lw	a1,60(a5)
 2a8:	01e60633          	add	a2,a2,t5
 2ac:	01d686b3          	add	a3,a3,t4
 2b0:	006707b3          	add	a5,a4,t1
 2b4:	01c60633          	add	a2,a2,t3
 2b8:	01168733          	add	a4,a3,a7
 2bc:	00a787b3          	add	a5,a5,a0
 2c0:	010606b3          	add	a3,a2,a6
 2c4:	00d70733          	add	a4,a4,a3
 2c8:	00b787b3          	add	a5,a5,a1
 2cc:	00e787b3          	add	a5,a5,a4
 2d0:	00078513          	mv	a0,a5
 2d4:	00008067          	ret
