
bench_linkedlist.elf:     file format elf32-littleriscv


Disassembly of section .text:

00000000 <_start>:
   0:	3fc00113          	li	sp,1020
   4:	00000f93          	li	t6,0
   8:	024000ef          	jal	2c <main>
   c:	0de00f93          	li	t6,222
  10:	008f9f93          	slli	t6,t6,0x8
  14:	0adf8f93          	addi	t6,t6,173

00000018 <halt_loop>:
  18:	00000013          	nop
  1c:	00000013          	nop
  20:	00000013          	nop
  24:	00000013          	nop
  28:	ff1ff06f          	j	18 <halt_loop>

0000002c <main>:
  2c:	00000637          	lui	a2,0x0
  30:	00060613          	mv	a2,a2
  34:	00700793          	li	a5,7
  38:	00f62023          	sw	a5,0(a2) # 0 <_start>
  3c:	00e00793          	li	a5,14
  40:	00f62223          	sw	a5,4(a2)
  44:	00300793          	li	a5,3
  48:	00f62423          	sw	a5,8(a2)
  4c:	01500793          	li	a5,21
  50:	00f62623          	sw	a5,12(a2)
  54:	00b00793          	li	a5,11
  58:	00f62823          	sw	a5,16(a2)
  5c:	01c00793          	li	a5,28
  60:	00f62a23          	sw	a5,20(a2)
  64:	00100793          	li	a5,1
  68:	00f62c23          	sw	a5,24(a2)
  6c:	01200793          	li	a5,18
  70:	00f62e23          	sw	a5,28(a2)
  74:	01900793          	li	a5,25
  78:	02f62023          	sw	a5,32(a2)
  7c:	00400793          	li	a5,4
  80:	02f62223          	sw	a5,36(a2)
  84:	01000793          	li	a5,16
  88:	02f62423          	sw	a5,40(a2)
  8c:	00900793          	li	a5,9
  90:	02f62623          	sw	a5,44(a2)
  94:	01e00793          	li	a5,30
  98:	02f62823          	sw	a5,48(a2)
  9c:	00600793          	li	a5,6
  a0:	02f62a23          	sw	a5,52(a2)
  a4:	01600793          	li	a5,22
  a8:	02f62c23          	sw	a5,56(a2)
  ac:	00200793          	li	a5,2
  b0:	02f62e23          	sw	a5,60(a2)
  b4:	00d00793          	li	a5,13
  b8:	04f62023          	sw	a5,64(a2)
  bc:	01b00793          	li	a5,27
  c0:	04f62223          	sw	a5,68(a2)
  c4:	00800793          	li	a5,8
  c8:	04f62423          	sw	a5,72(a2)
  cc:	01f00793          	li	a5,31
  d0:	04f62623          	sw	a5,76(a2)
  d4:	00500793          	li	a5,5
  d8:	04f62823          	sw	a5,80(a2)
  dc:	00f00793          	li	a5,15
  e0:	04f62a23          	sw	a5,84(a2)
  e4:	01800793          	li	a5,24
  e8:	04f62c23          	sw	a5,88(a2)
  ec:	00a00793          	li	a5,10
  f0:	04f62e23          	sw	a5,92(a2)
  f4:	01300793          	li	a5,19
  f8:	06f62023          	sw	a5,96(a2)
  fc:	06062223          	sw	zero,100(a2)
 100:	01d00793          	li	a5,29
 104:	06f62423          	sw	a5,104(a2)
 108:	00c00793          	li	a5,12
 10c:	06f62623          	sw	a5,108(a2)
 110:	01400793          	li	a5,20
 114:	06f62823          	sw	a5,112(a2)
 118:	01700793          	li	a5,23
 11c:	06f62a23          	sw	a5,116(a2)
 120:	01100793          	li	a5,17
 124:	06f62c23          	sw	a5,120(a2)
 128:	01a00793          	li	a5,26
 12c:	06f62e23          	sw	a5,124(a2)
 130:	04000693          	li	a3,64
 134:	00000713          	li	a4,0
 138:	00000793          	li	a5,0
 13c:	01f7f793          	andi	a5,a5,31
 140:	00279793          	slli	a5,a5,0x2
 144:	00f607b3          	add	a5,a2,a5
 148:	0007a783          	lw	a5,0(a5)
 14c:	fff68693          	addi	a3,a3,-1
 150:	00f70733          	add	a4,a4,a5
 154:	fe0694e3          	bnez	a3,13c <main+0x110>
 158:	04000693          	li	a3,64
 15c:	00f00793          	li	a5,15
 160:	01f7f793          	andi	a5,a5,31
 164:	00279793          	slli	a5,a5,0x2
 168:	00f607b3          	add	a5,a2,a5
 16c:	0007a783          	lw	a5,0(a5)
 170:	fff68693          	addi	a3,a3,-1
 174:	00f70733          	add	a4,a4,a5
 178:	fe0694e3          	bnez	a3,160 <main+0x134>
 17c:	00070513          	mv	a0,a4
 180:	00008067          	ret
